(lp0
(lp1
S'ben'
p2
aI2375
aa(lp3
S'dad'
p4
aI3360
aa(lp5
S'jen'
p6
aI245
aa(lp7
S'ben'
p8
aI6490
aa(lp9
S'deric'
p10
aI3595
aa(lp11
S'dad'
p12
aI900
aa(lp13
S'jay'
p14
aI405
aa(lp15
S'jay'
p16
aI540
aa(lp17
S'lewis'
p18
aI2940
aa(lp19
S'dequavis'
p20
aI5690
aa(lp21
S'barry'
p22
aI5285
aa(lp23
S'ben'
p24
aI490
aa(lp25
S'nerd'
p26
aI5630
aa(lp27
S'ben'
p28
aI7760
aa(lp29
S'derric'
p30
aI6310
aa(lp31
S'laid'
p32
aI860
aa(lp33
S'june'
p34
aI850
aa(lp35
S'test'
p36
aI510
aa(lp37
S'jem'
p38
aI3275
aa(lp39
S'ben'
p40
aI1945
aa(lp41
S'mat'
p42
aI1645
aa(lp43
S'asdf'
p44
aI2430
aa(lp45
S'fd'
p46
aI4110
aa(lp47
S'hdas'
p48
aI3120
aa.